target datalayout = "e-m:e-p270:32:32-p271:32:32-p272:64:64-i64:64-i128:128-f80:128-n8:16:32:64-S128"
target triple = "x86_64-unknown-linux-gnu"

@.str = private unnamed_addr constant [27 x i8] c"../qemu/monitor/qmp-cmds.c\00", align 1
@__func__.qmp_stop = private unnamed_addr constant [9 x i8] c"qmp_stop\00", align 1
@.str.1 = private unnamed_addr constant [41 x i8] c"There is a dump in process, please wait.\00", align 1
@autostart = external global i32, align 4

; Function Attrs: nounwind sspstrong uwtable
define dso_local void @qmp_stop(ptr noundef %errp) #0 {
entry:
  %errp.addr = alloca ptr, align 8
  store ptr %errp, ptr %errp.addr, align 8
  %call = call zeroext i1 @qemu_system_dump_in_progress()
  br i1 %call, label %if.then, label %if.end

if.then:                                          ; preds = %entry
  %0 = load ptr, ptr %errp.addr, align 8
  call void (ptr, ptr, i32, ptr, ptr, ...) @error_setg_internal(ptr noundef %0, ptr noundef @.str, i32 noundef 55, ptr noundef @__func__.qmp_stop, ptr noundef @.str.1)
  br label %if.end4

if.end:                                           ; preds = %entry
  %call1 = call zeroext i1 @runstate_check(i32 noundef 1)
  br i1 %call1, label %if.then2, label %if.else

if.then2:                                         ; preds = %if.end
  store i32 0, ptr @autostart, align 4
  br label %if.end4

if.else:                                          ; preds = %if.end
  %call3 = call i32 @vm_stop(i32 noundef 4)
  br label %if.end4

if.end4:                                          ; preds = %if.else, %if.then2, %if.then
  ret void
}