; Function Attrs: nounwind sspstrong uwtable
define dso_local void @qmp_stop(ptr noundef %errp) local_unnamed_addr #0 {
entry:
  %call = tail call zeroext i1 @qemu_system_dump_in_progress() #6
  br i1 %call, label %if.then, label %if.end

if.then:                                          ; preds = %entry
  tail call void (ptr, ptr, i32, ptr, ptr, ...) @error_setg_internal(ptr noundef %errp, ptr noundef nonnull @.str, i32 noundef 55, ptr noundef nonnull @__func__.qmp_stop, ptr noundef nonnull @.str.1) #6
  br label %if.end4

if.end:                                           ; preds = %entry
  %call1 = tail call zeroext i1 @runstate_check(i32 noundef 1) #6
  br i1 %call1, label %if.then2, label %if.else

if.then2:                                         ; preds = %if.end
  store i32 0, ptr @autostart, align 4
  br label %if.end4

if.else:                                          ; preds = %if.end
  %call3 = tail call i32 @vm_stop(i32 noundef 4) #6
  br label %if.end4

if.end4:                                          ; preds = %if.else, %if.then2, %if.then
  ret void
}